target datalayout = "e-m:e-p270:32:32-p271:32:32-p272:64:64-i64:64-i128:128-f80:128-n8:16:32:64-S128"
target triple = "x86_64-pc-linux-gnu"

%struct.noisy_dgram_st = type { i64, %struct.bio_msg_st, i64, i32, i32, %struct.bw_limiter_st, %struct.bw_limiter_st, ptr, ptr }
%struct.bio_msg_st = type { ptr, i64, ptr, ptr, i64 }
%struct.bw_limiter_st = type { [1024 x %struct.pkt_info_st], i64, i64, i64, i64 }
%struct.pkt_info_st = type { i64, %struct.OSSL_TIME }
%struct.OSSL_TIME = type { i64 }

@.str.1 = private unnamed_addr constant [40 x i8] c"../openssl/test/helpers/noisydgrambio.c\00", align 1
@.str.2 = private unnamed_addr constant [5 x i8] c"data\00", align 1

; Function Attrs: nounwind uwtable
define internal void @data_free(ptr noundef %0) #0 {
  %2 = alloca ptr, align 8
  store ptr %0, ptr %2, align 8, !tbaa !16
  %3 = load ptr, ptr %2, align 8, !tbaa !16
  %4 = icmp eq ptr %3, null
  br i1 %4, label %5, label %6

5:                                                ; preds = %1
  br label %20

6:                                                ; preds = %1
  %7 = load ptr, ptr %2, align 8, !tbaa !16
  %8 = getelementptr inbounds nuw %struct.noisy_dgram_st, ptr %7, i32 0, i32 1
  %9 = getelementptr inbounds nuw %struct.bio_msg_st, ptr %8, i32 0, i32 0
  %10 = load ptr, ptr %9, align 8, !tbaa !50
  call void @CRYPTO_free(ptr noundef %10, ptr noundef @.str.1, i32 noundef 477)
  %11 = load ptr, ptr %2, align 8, !tbaa !16
  %12 = getelementptr inbounds nuw %struct.noisy_dgram_st, ptr %11, i32 0, i32 1
  %13 = getelementptr inbounds nuw %struct.bio_msg_st, ptr %12, i32 0, i32 2
  %14 = load ptr, ptr %13, align 8, !tbaa !51
  call void @BIO_ADDR_free(ptr noundef %14)
  %15 = load ptr, ptr %2, align 8, !tbaa !16
  %16 = getelementptr inbounds nuw %struct.noisy_dgram_st, ptr %15, i32 0, i32 1
  %17 = getelementptr inbounds nuw %struct.bio_msg_st, ptr %16, i32 0, i32 3
  %18 = load ptr, ptr %17, align 8, !tbaa !52
  call void @BIO_ADDR_free(ptr noundef %18)
  %19 = load ptr, ptr %2, align 8, !tbaa !16
  call void @CRYPTO_free(ptr noundef %19, ptr noundef @.str.1, i32 noundef 480)
  br label %20

20:                                               ; preds = %6, %5
  ret void
}

; Function Attrs: nounwind uwtable
define internal i32 @noisy_dgram_new(ptr noundef %0) #0 {
  %2 = alloca i32, align 4
  %3 = alloca ptr, align 8
  %4 = alloca ptr, align 8
  %5 = alloca i32, align 4
  store ptr %0, ptr %3, align 8, !tbaa !9
  call void @llvm.lifetime.start.p0(i64 8, ptr %4) #5
  %6 = call noalias ptr @CRYPTO_zalloc(i64 noundef 32912, ptr noundef @.str.1, i32 noundef 485)
  store ptr %6, ptr %4, align 8, !tbaa !16
  %7 = load ptr, ptr %4, align 8, !tbaa !16
  %8 = call i32 @test_ptr(ptr noundef @.str.1, i32 noundef 487, ptr noundef @.str.2, ptr noundef %7)
  %9 = icmp ne i32 %8, 0
  br i1 %9, label %11, label %10

10:                                               ; preds = %1
  store i32 0, ptr %2, align 4
  store i32 1, ptr %5, align 4
  br label %49

11:                                               ; preds = %1
  %12 = load ptr, ptr %4, align 8, !tbaa !16
  %13 = getelementptr inbounds nuw %struct.noisy_dgram_st, ptr %12, i32 0, i32 4
  store i32 5, ptr %13, align 4, !tbaa !23
  %14 = call noalias ptr @CRYPTO_malloc(i64 noundef 1472, ptr noundef @.str.1, i32 noundef 491)
  %15 = load ptr, ptr %4, align 8, !tbaa !16
  %16 = getelementptr inbounds nuw %struct.noisy_dgram_st, ptr %15, i32 0, i32 1
  %17 = getelementptr inbounds nuw %struct.bio_msg_st, ptr %16, i32 0, i32 0
  store ptr %14, ptr %17, align 8, !tbaa !50
  %18 = call ptr @BIO_ADDR_new()
  %19 = load ptr, ptr %4, align 8, !tbaa !16
  %20 = getelementptr inbounds nuw %struct.noisy_dgram_st, ptr %19, i32 0, i32 1
  %21 = getelementptr inbounds nuw %struct.bio_msg_st, ptr %20, i32 0, i32 2
  store ptr %18, ptr %21, align 8, !tbaa !51
  %22 = call ptr @BIO_ADDR_new()
  %23 = load ptr, ptr %4, align 8, !tbaa !16
  %24 = getelementptr inbounds nuw %struct.noisy_dgram_st, ptr %23, i32 0, i32 1
  %25 = getelementptr inbounds nuw %struct.bio_msg_st, ptr %24, i32 0, i32 3
  store ptr %22, ptr %25, align 8, !tbaa !52
  %26 = load ptr, ptr %4, align 8, !tbaa !16
  %27 = getelementptr inbounds nuw %struct.noisy_dgram_st, ptr %26, i32 0, i32 1
  %28 = getelementptr inbounds nuw %struct.bio_msg_st, ptr %27, i32 0, i32 0
  %29 = load ptr, ptr %28, align 8, !tbaa !50
  %30 = icmp eq ptr %29, null
  br i1 %30, label %43, label %31

31:                                               ; preds = %11
  %32 = load ptr, ptr %4, align 8, !tbaa !16
  %33 = getelementptr inbounds nuw %struct.noisy_dgram_st, ptr %32, i32 0, i32 1
  %34 = getelementptr inbounds nuw %struct.bio_msg_st, ptr %33, i32 0, i32 2
  %35 = load ptr, ptr %34, align 8, !tbaa !51
  %36 = icmp eq ptr %35, null
  br i1 %36, label %43, label %37

37:                                               ; preds = %31
  %38 = load ptr, ptr %4, align 8, !tbaa !16
  %39 = getelementptr inbounds nuw %struct.noisy_dgram_st, ptr %38, i32 0, i32 1
  %40 = getelementptr inbounds nuw %struct.bio_msg_st, ptr %39, i32 0, i32 3
  %41 = load ptr, ptr %40, align 8, !tbaa !52
  %42 = icmp eq ptr %41, null
  br i1 %42, label %43, label %45

43:                                               ; preds = %37, %31, %11
  %44 = load ptr, ptr %4, align 8, !tbaa !16
  call void @data_free(ptr noundef %44)
  store i32 0, ptr %2, align 4
  store i32 1, ptr %5, align 4
  br label %49

45:                                               ; preds = %37
  %46 = load ptr, ptr %3, align 8, !tbaa !9
  %47 = load ptr, ptr %4, align 8, !tbaa !16
  call void @BIO_set_data(ptr noundef %46, ptr noundef %47)
  %48 = load ptr, ptr %3, align 8, !tbaa !9
  call void @BIO_set_init(ptr noundef %48, i32 noundef 1)
  store i32 1, ptr %2, align 4
  store i32 1, ptr %5, align 4
  br label %49

49:                                               ; preds = %45, %43, %10
  call void @llvm.lifetime.end.p0(i64 8, ptr %4) #5
  %50 = load i32, ptr %2, align 4
  ret i32 %50
}