; Function Attrs: nounwind uwtable
define internal range(i32 0, 2) i32 @noisy_dgram_new(ptr noundef %0) #0 {
  %2 = tail call noalias ptr @CRYPTO_zalloc(i64 noundef 32912, ptr noundef nonnull @.str.1, i32 noundef 485) #3
  %3 = tail call i32 @test_ptr(ptr noundef nonnull @.str.1, i32 noundef 487, ptr noundef nonnull @.str.2, ptr noundef %2) #3
  %.not = icmp eq i32 %3, 0
  br i1 %.not, label %21, label %4

4:                                                ; preds = %1
  %5 = getelementptr inbounds nuw i8, ptr %2, i64 60
  store i32 5, ptr %5, align 4, !tbaa !16
  %6 = tail call noalias ptr @CRYPTO_malloc(i64 noundef 1472, ptr noundef nonnull @.str.1, i32 noundef 491) #3
  %7 = getelementptr inbounds nuw i8, ptr %2, i64 8
  store ptr %6, ptr %7, align 8, !tbaa !44
  %8 = tail call ptr @BIO_ADDR_new() #3
  %9 = getelementptr inbounds nuw i8, ptr %2, i64 24
  store ptr %8, ptr %9, align 8, !tbaa !45
  %10 = tail call ptr @BIO_ADDR_new() #3
  %11 = getelementptr inbounds nuw i8, ptr %2, i64 32
  store ptr %10, ptr %11, align 8, !tbaa !46
  %12 = load ptr, ptr %7, align 8, !tbaa !44
  %13 = icmp eq ptr %12, null
  br i1 %13, label %data_free.exit, label %14

14:                                               ; preds = %4
  %15 = load ptr, ptr %9, align 8, !tbaa !45
  %16 = icmp eq ptr %15, null
  %17 = icmp eq ptr %10, null
  %or.cond = select i1 %16, i1 true, i1 %17
  br i1 %or.cond, label %data_free.exit, label %20

data_free.exit:                                   ; preds = %14, %4
  tail call void @CRYPTO_free(ptr noundef %12, ptr noundef nonnull @.str.1, i32 noundef 477) #3
  %18 = load ptr, ptr %9, align 8, !tbaa !45
  tail call void @BIO_ADDR_free(ptr noundef %18) #3
  %19 = load ptr, ptr %11, align 8, !tbaa !46
  tail call void @BIO_ADDR_free(ptr noundef %19) #3
  tail call void @CRYPTO_free(ptr noundef nonnull %2, ptr noundef nonnull @.str.1, i32 noundef 480) #3
  br label %21

20:                                               ; preds = %14
  tail call void @BIO_set_data(ptr noundef %0, ptr noundef nonnull %2) #3
  tail call void @BIO_set_init(ptr noundef %0, i32 noundef 1) #3
  br label %21

21:                                               ; preds = %1, %20, %data_free.exit
  %.0 = phi i32 [ 0, %data_free.exit ], [ 1, %20 ], [ 0, %1 ]
  ret i32 %.0
}